target datalayout = "e-m:e-p270:32:32-p271:32:32-p272:64:64-i64:64-i128:128-f80:128-n8:16:32:64-S128"
target triple = "x86_64-pc-linux-gnu"

%struct.pmix_mca_base_component_2_1_0_t = type { i32, i32, i32, [16 x i8], i32, i32, i32, [32 x i8], i32, i32, i32, [64 x i8], i32, i32, i32, ptr, ptr, ptr, ptr, [32 x i8] }
%struct.timespec = type { i64, i64 }
%struct.prte_mca_plm_ssh_component_t = type { %struct.pmix_mca_base_component_2_1_0_t, i8, i8, i8, i8, i8, i8, i8, %struct.timespec, i32, i8, i32, ptr, ptr, ptr, i8, i8, ptr, ptr, ptr }

@.str.1 = private unnamed_addr constant [15 x i8] c"num_concurrent\00", align 1
@.str.2 = private unnamed_addr constant [70 x i8] c"How many plm_ssh_agent instances to invoke concurrently (must be > 0)\00", align 1
@.str.3 = private unnamed_addr constant [10 x i8] c"force_ssh\00", align 1
@.str.4 = private unnamed_addr constant [37 x i8] c"Force the launcher to always use ssh\00", align 1
@.str.5 = private unnamed_addr constant [13 x i8] c"disable_qrsh\00", align 1
@.str.6 = private unnamed_addr constant [72 x i8] c"Disable the use of qrsh when under the Grid Engine parallel environment\00", align 1
@.str.7 = private unnamed_addr constant [15 x i8] c"daemonize_qrsh\00", align 1
@.str.8 = private unnamed_addr constant [63 x i8] c"Daemonize the orted under the Grid Engine parallel environment\00", align 1
@.str.9 = private unnamed_addr constant [16 x i8] c"disable_llspawn\00", align 1
@.str.10 = private unnamed_addr constant [66 x i8] c"Disable the use of llspawn when under the LoadLeveler environment\00", align 1
@.str.11 = private unnamed_addr constant [18 x i8] c"daemonize_llspawn\00", align 1
@.str.12 = private unnamed_addr constant [59 x i8] c"Daemonize the orted when under the LoadLeveler environment\00", align 1
@.str.13 = private unnamed_addr constant [9 x i8] c"priority\00", align 1
@.str.14 = private unnamed_addr constant [34 x i8] c"Priority of the ssh plm component\00", align 1
@prte_plm_ssh_delay_string = internal global ptr null, align 8
@.str.15 = private unnamed_addr constant [6 x i8] c"delay\00", align 1
@.str.16 = private unnamed_addr constant [59 x i8] c"Delay between invocations of the remote agent (sec[:usec])\00", align 1
@.str.17 = private unnamed_addr constant [14 x i8] c"no_tree_spawn\00", align 1
@.str.18 = private unnamed_addr constant [56 x i8] c"If set to true, do not launch via a tree-based topology\00", align 1
@.str.19 = private unnamed_addr constant [10 x i8] c"ssh : rsh\00", align 1
@.str.20 = private unnamed_addr constant [6 x i8] c"agent\00", align 1
@.str.21 = private unnamed_addr constant [73 x i8] c"The command used to launch executables on remote nodes (typically \22ssh\22)\00", align 1
@.str.22 = private unnamed_addr constant [5 x i8] c"prte\00", align 1
@.str.23 = private unnamed_addr constant [4 x i8] c"pls\00", align 1
@.str.24 = private unnamed_addr constant [10 x i8] c"ssh_agent\00", align 1
@agent_var_id = internal global i32 -1, align 4
@.str.25 = private unnamed_addr constant [18 x i8] c"assume_same_shell\00", align 1
@.str.26 = private unnamed_addr constant [158 x i8] c"If set to true, assume that the shell on the remote node is the same as the shell on the local node.  Otherwise, probe for what the remote shell [default: 1]\00", align 1
@.str.27 = private unnamed_addr constant [24 x i8] c"pass_environ_mca_params\00", align 1
@.str.28 = private unnamed_addr constant [86 x i8] c"If set to false, do not include mca params from the environment on the orted cmd line\00", align 1
@.str.29 = private unnamed_addr constant [5 x i8] c"args\00", align 1
@.str.30 = private unnamed_addr constant [24 x i8] c"Arguments to add to ssh\00", align 1
@.str.31 = private unnamed_addr constant [13 x i8] c"pass_libpath\00", align 1
@.str.32 = private unnamed_addr constant [73 x i8] c"Prepend the specified library path to the remote shell's LD_LIBRARY_PATH\00", align 1
@.str.33 = private unnamed_addr constant [6 x i8] c"chdir\00", align 1
@.str.34 = private unnamed_addr constant [61 x i8] c"Change working directory after ssh, but before exec of prted\00", align 1

; Function Attrs: nounwind uwtable
define internal i32 @ssh_component_register() #0 {
  %1 = alloca ptr, align 8
  %2 = alloca i32, align 4
  call void @llvm.lifetime.start.p0(i64 8, ptr %1) #6
  store ptr @prte_mca_plm_ssh_component, ptr %1, align 8, !tbaa !55
  call void @llvm.lifetime.start.p0(i64 4, ptr %2) #6
  store i32 128, ptr getelementptr inbounds nuw (%struct.prte_mca_plm_ssh_component_t, ptr @prte_mca_plm_ssh_component, i32 0, i32 11), align 8, !tbaa !17
  %3 = load ptr, ptr %1, align 8, !tbaa !55
  %4 = call i32 @pmix_mca_base_component_var_register(ptr noundef %3, ptr noundef @.str.1, ptr noundef @.str.2, i32 noundef 0, ptr noundef getelementptr inbounds nuw (%struct.prte_mca_plm_ssh_component_t, ptr @prte_mca_plm_ssh_component, i32 0, i32 11))
  store i8 0, ptr getelementptr inbounds nuw (%struct.prte_mca_plm_ssh_component_t, ptr @prte_mca_plm_ssh_component, i32 0, i32 1), align 8, !tbaa !57
  %5 = load ptr, ptr %1, align 8, !tbaa !55
  %6 = call i32 @pmix_mca_base_component_var_register(ptr noundef %5, ptr noundef @.str.3, ptr noundef @.str.4, i32 noundef 7, ptr noundef getelementptr inbounds nuw (%struct.prte_mca_plm_ssh_component_t, ptr @prte_mca_plm_ssh_component, i32 0, i32 1))
  store i8 0, ptr getelementptr inbounds nuw (%struct.prte_mca_plm_ssh_component_t, ptr @prte_mca_plm_ssh_component, i32 0, i32 2), align 1, !tbaa !27
  %7 = load ptr, ptr %1, align 8, !tbaa !55
  %8 = call i32 @pmix_mca_base_component_var_register(ptr noundef %7, ptr noundef @.str.5, ptr noundef @.str.6, i32 noundef 7, ptr noundef getelementptr inbounds nuw (%struct.prte_mca_plm_ssh_component_t, ptr @prte_mca_plm_ssh_component, i32 0, i32 2))
  store i8 0, ptr getelementptr inbounds nuw (%struct.prte_mca_plm_ssh_component_t, ptr @prte_mca_plm_ssh_component, i32 0, i32 4), align 1, !tbaa !58
  %9 = load ptr, ptr %1, align 8, !tbaa !55
  %10 = call i32 @pmix_mca_base_component_var_register(ptr noundef %9, ptr noundef @.str.7, ptr noundef @.str.8, i32 noundef 7, ptr noundef getelementptr inbounds nuw (%struct.prte_mca_plm_ssh_component_t, ptr @prte_mca_plm_ssh_component, i32 0, i32 4))
  store i8 0, ptr getelementptr inbounds nuw (%struct.prte_mca_plm_ssh_component_t, ptr @prte_mca_plm_ssh_component, i32 0, i32 5), align 4, !tbaa !44
  %11 = load ptr, ptr %1, align 8, !tbaa !55
  %12 = call i32 @pmix_mca_base_component_var_register(ptr noundef %11, ptr noundef @.str.9, ptr noundef @.str.10, i32 noundef 7, ptr noundef getelementptr inbounds nuw (%struct.prte_mca_plm_ssh_component_t, ptr @prte_mca_plm_ssh_component, i32 0, i32 5))
  store i8 0, ptr getelementptr inbounds nuw (%struct.prte_mca_plm_ssh_component_t, ptr @prte_mca_plm_ssh_component, i32 0, i32 7), align 2, !tbaa !59
  %13 = load ptr, ptr %1, align 8, !tbaa !55
  %14 = call i32 @pmix_mca_base_component_var_register(ptr noundef %13, ptr noundef @.str.11, ptr noundef @.str.12, i32 noundef 7, ptr noundef getelementptr inbounds nuw (%struct.prte_mca_plm_ssh_component_t, ptr @prte_mca_plm_ssh_component, i32 0, i32 7))
  store i32 10, ptr getelementptr inbounds nuw (%struct.prte_mca_plm_ssh_component_t, ptr @prte_mca_plm_ssh_component, i32 0, i32 9), align 8, !tbaa !54
  %15 = load ptr, ptr %1, align 8, !tbaa !55
  %16 = call i32 @pmix_mca_base_component_var_register(ptr noundef %15, ptr noundef @.str.13, ptr noundef @.str.14, i32 noundef 0, ptr noundef getelementptr inbounds nuw (%struct.prte_mca_plm_ssh_component_t, ptr @prte_mca_plm_ssh_component, i32 0, i32 9))
  store ptr null, ptr @prte_plm_ssh_delay_string, align 8, !tbaa !18
  %17 = load ptr, ptr %1, align 8, !tbaa !55
  %18 = call i32 @pmix_mca_base_component_var_register(ptr noundef %17, ptr noundef @.str.15, ptr noundef @.str.16, i32 noundef 5, ptr noundef @prte_plm_ssh_delay_string)
  store i8 0, ptr getelementptr inbounds nuw (%struct.prte_mca_plm_ssh_component_t, ptr @prte_mca_plm_ssh_component, i32 0, i32 10), align 4, !tbaa !60
  %19 = load ptr, ptr %1, align 8, !tbaa !55
  %20 = call i32 @pmix_mca_base_component_var_register(ptr noundef %19, ptr noundef @.str.17, ptr noundef @.str.18, i32 noundef 7, ptr noundef getelementptr inbounds nuw (%struct.prte_mca_plm_ssh_component_t, ptr @prte_mca_plm_ssh_component, i32 0, i32 10))
  store ptr @.str.19, ptr getelementptr inbounds nuw (%struct.prte_mca_plm_ssh_component_t, ptr @prte_mca_plm_ssh_component, i32 0, i32 12), align 8, !tbaa !43
  %21 = load ptr, ptr %1, align 8, !tbaa !55
  %22 = call i32 @pmix_mca_base_component_var_register(ptr noundef %21, ptr noundef @.str.20, ptr noundef @.str.21, i32 noundef 5, ptr noundef getelementptr inbounds nuw (%struct.prte_mca_plm_ssh_component_t, ptr @prte_mca_plm_ssh_component, i32 0, i32 12))
  store i32 %22, ptr %2, align 4, !tbaa !26
  %23 = load i32, ptr %2, align 4, !tbaa !26
  %24 = call i32 @pmix_mca_base_var_register_synonym(i32 noundef %23, ptr noundef @.str.22, ptr noundef @.str.23, ptr noundef null, ptr noundef @.str.24, i32 noundef 1)
  %25 = load i32, ptr %2, align 4, !tbaa !26
  %26 = call i32 @pmix_mca_base_var_register_synonym(i32 noundef %25, ptr noundef @.str.22, ptr noundef @.str.22, ptr noundef null, ptr noundef @.str.24, i32 noundef 1)
  %27 = load i32, ptr %2, align 4, !tbaa !26
  store i32 %27, ptr @agent_var_id, align 4, !tbaa !26
  store i8 1, ptr getelementptr inbounds nuw (%struct.prte_mca_plm_ssh_component_t, ptr @prte_mca_plm_ssh_component, i32 0, i32 15), align 8, !tbaa !61
  %28 = load ptr, ptr %1, align 8, !tbaa !55
  %29 = call i32 @pmix_mca_base_component_var_register(ptr noundef %28, ptr noundef @.str.25, ptr noundef @.str.26, i32 noundef 7, ptr noundef getelementptr inbounds nuw (%struct.prte_mca_plm_ssh_component_t, ptr @prte_mca_plm_ssh_component, i32 0, i32 15))
  store i32 %29, ptr %2, align 4, !tbaa !26
  %30 = load i32, ptr %2, align 4, !tbaa !26
  %31 = call i32 @pmix_mca_base_var_register_synonym(i32 noundef %30, ptr noundef @.str.22, ptr noundef @.str.22, ptr noundef null, ptr noundef @.str.25, i32 noundef 1)
  store i8 1, ptr getelementptr inbounds nuw (%struct.prte_mca_plm_ssh_component_t, ptr @prte_mca_plm_ssh_component, i32 0, i32 16), align 1, !tbaa !62
  %32 = load ptr, ptr %1, align 8, !tbaa !55
  %33 = call i32 @pmix_mca_base_component_var_register(ptr noundef %32, ptr noundef @.str.27, ptr noundef @.str.28, i32 noundef 7, ptr noundef getelementptr inbounds nuw (%struct.prte_mca_plm_ssh_component_t, ptr @prte_mca_plm_ssh_component, i32 0, i32 16))
  store ptr null, ptr getelementptr inbounds nuw (%struct.prte_mca_plm_ssh_component_t, ptr @prte_mca_plm_ssh_component, i32 0, i32 17), align 8, !tbaa !63
  %34 = load ptr, ptr %1, align 8, !tbaa !55
  %35 = call i32 @pmix_mca_base_component_var_register(ptr noundef %34, ptr noundef @.str.29, ptr noundef @.str.30, i32 noundef 5, ptr noundef getelementptr inbounds nuw (%struct.prte_mca_plm_ssh_component_t, ptr @prte_mca_plm_ssh_component, i32 0, i32 17))
  store ptr null, ptr getelementptr inbounds nuw (%struct.prte_mca_plm_ssh_component_t, ptr @prte_mca_plm_ssh_component, i32 0, i32 18), align 8, !tbaa !64
  %36 = load ptr, ptr %1, align 8, !tbaa !55
  %37 = call i32 @pmix_mca_base_component_var_register(ptr noundef %36, ptr noundef @.str.31, ptr noundef @.str.32, i32 noundef 5, ptr noundef getelementptr inbounds nuw (%struct.prte_mca_plm_ssh_component_t, ptr @prte_mca_plm_ssh_component, i32 0, i32 18))
  store ptr null, ptr getelementptr inbounds nuw (%struct.prte_mca_plm_ssh_component_t, ptr @prte_mca_plm_ssh_component, i32 0, i32 19), align 8, !tbaa !65
  %38 = load ptr, ptr %1, align 8, !tbaa !55
  %39 = call i32 @pmix_mca_base_component_var_register(ptr noundef %38, ptr noundef @.str.33, ptr noundef @.str.34, i32 noundef 5, ptr noundef getelementptr inbounds nuw (%struct.prte_mca_plm_ssh_component_t, ptr @prte_mca_plm_ssh_component, i32 0, i32 19))
  call void @llvm.lifetime.end.p0(i64 4, ptr %2) #6
  call void @llvm.lifetime.end.p0(i64 8, ptr %1) #6
  ret i32 0
}