; Function Attrs: nounwind uwtable
define internal noundef i32 @ssh_component_register() #0 {
  store i32 128, ptr getelementptr inbounds nuw (i8, ptr @prte_mca_plm_ssh_component, i64 256), align 8, !tbaa !17
  %1 = tail call i32 @pmix_mca_base_component_var_register(ptr noundef nonnull @prte_mca_plm_ssh_component, ptr noundef nonnull @.str.1, ptr noundef nonnull @.str.2, i32 noundef 0, ptr noundef nonnull getelementptr inbounds nuw (i8, ptr @prte_mca_plm_ssh_component, i64 256)) #13
  store i8 0, ptr getelementptr inbounds nuw (i8, ptr @prte_mca_plm_ssh_component, i64 224), align 8, !tbaa !47
  %2 = tail call i32 @pmix_mca_base_component_var_register(ptr noundef nonnull @prte_mca_plm_ssh_component, ptr noundef nonnull @.str.3, ptr noundef nonnull @.str.4, i32 noundef 7, ptr noundef nonnull getelementptr inbounds nuw (i8, ptr @prte_mca_plm_ssh_component, i64 224)) #13
  store i8 0, ptr getelementptr inbounds nuw (i8, ptr @prte_mca_plm_ssh_component, i64 225), align 1, !tbaa !22
  %3 = tail call i32 @pmix_mca_base_component_var_register(ptr noundef nonnull @prte_mca_plm_ssh_component, ptr noundef nonnull @.str.5, ptr noundef nonnull @.str.6, i32 noundef 7, ptr noundef nonnull getelementptr inbounds nuw (i8, ptr @prte_mca_plm_ssh_component, i64 225)) #13
  store i8 0, ptr getelementptr inbounds nuw (i8, ptr @prte_mca_plm_ssh_component, i64 227), align 1, !tbaa !48
  %4 = tail call i32 @pmix_mca_base_component_var_register(ptr noundef nonnull @prte_mca_plm_ssh_component, ptr noundef nonnull @.str.7, ptr noundef nonnull @.str.8, i32 noundef 7, ptr noundef nonnull getelementptr inbounds nuw (i8, ptr @prte_mca_plm_ssh_component, i64 227)) #13
  store i8 0, ptr getelementptr inbounds nuw (i8, ptr @prte_mca_plm_ssh_component, i64 228), align 4, !tbaa !39
  %5 = tail call i32 @pmix_mca_base_component_var_register(ptr noundef nonnull @prte_mca_plm_ssh_component, ptr noundef nonnull @.str.9, ptr noundef nonnull @.str.10, i32 noundef 7, ptr noundef nonnull getelementptr inbounds nuw (i8, ptr @prte_mca_plm_ssh_component, i64 228)) #13
  store i8 0, ptr getelementptr inbounds nuw (i8, ptr @prte_mca_plm_ssh_component, i64 230), align 2, !tbaa !49
  %6 = tail call i32 @pmix_mca_base_component_var_register(ptr noundef nonnull @prte_mca_plm_ssh_component, ptr noundef nonnull @.str.11, ptr noundef nonnull @.str.12, i32 noundef 7, ptr noundef nonnull getelementptr inbounds nuw (i8, ptr @prte_mca_plm_ssh_component, i64 230)) #13
  store i32 10, ptr getelementptr inbounds nuw (i8, ptr @prte_mca_plm_ssh_component, i64 248), align 8, !tbaa !46
  %7 = tail call i32 @pmix_mca_base_component_var_register(ptr noundef nonnull @prte_mca_plm_ssh_component, ptr noundef nonnull @.str.13, ptr noundef nonnull @.str.14, i32 noundef 0, ptr noundef nonnull getelementptr inbounds nuw (i8, ptr @prte_mca_plm_ssh_component, i64 248)) #13
  store ptr null, ptr @prte_plm_ssh_delay_string, align 8, !tbaa !18
  %8 = tail call i32 @pmix_mca_base_component_var_register(ptr noundef nonnull @prte_mca_plm_ssh_component, ptr noundef nonnull @.str.15, ptr noundef nonnull @.str.16, i32 noundef 5, ptr noundef nonnull @prte_plm_ssh_delay_string) #13
  store i8 0, ptr getelementptr inbounds nuw (i8, ptr @prte_mca_plm_ssh_component, i64 252), align 4, !tbaa !50
  %9 = tail call i32 @pmix_mca_base_component_var_register(ptr noundef nonnull @prte_mca_plm_ssh_component, ptr noundef nonnull @.str.17, ptr noundef nonnull @.str.18, i32 noundef 7, ptr noundef nonnull getelementptr inbounds nuw (i8, ptr @prte_mca_plm_ssh_component, i64 252)) #13
  store ptr @.str.19, ptr getelementptr inbounds nuw (i8, ptr @prte_mca_plm_ssh_component, i64 264), align 8, !tbaa !38
  %10 = tail call i32 @pmix_mca_base_component_var_register(ptr noundef nonnull @prte_mca_plm_ssh_component, ptr noundef nonnull @.str.20, ptr noundef nonnull @.str.21, i32 noundef 5, ptr noundef nonnull getelementptr inbounds nuw (i8, ptr @prte_mca_plm_ssh_component, i64 264)) #13
  %11 = tail call i32 @pmix_mca_base_var_register_synonym(i32 noundef %10, ptr noundef nonnull @.str.22, ptr noundef nonnull @.str.23, ptr noundef null, ptr noundef nonnull @.str.24, i32 noundef 1) #13
  %12 = tail call i32 @pmix_mca_base_var_register_synonym(i32 noundef %10, ptr noundef nonnull @.str.22, ptr noundef nonnull @.str.22, ptr noundef null, ptr noundef nonnull @.str.24, i32 noundef 1) #13
  store i32 %10, ptr @agent_var_id, align 4, !tbaa !21
  store i8 1, ptr getelementptr inbounds nuw (i8, ptr @prte_mca_plm_ssh_component, i64 288), align 8, !tbaa !51
  %13 = tail call i32 @pmix_mca_base_component_var_register(ptr noundef nonnull @prte_mca_plm_ssh_component, ptr noundef nonnull @.str.25, ptr noundef nonnull @.str.26, i32 noundef 7, ptr noundef nonnull getelementptr inbounds nuw (i8, ptr @prte_mca_plm_ssh_component, i64 288)) #13
  %14 = tail call i32 @pmix_mca_base_var_register_synonym(i32 noundef %13, ptr noundef nonnull @.str.22, ptr noundef nonnull @.str.22, ptr noundef null, ptr noundef nonnull @.str.25, i32 noundef 1) #13
  store i8 1, ptr getelementptr inbounds nuw (i8, ptr @prte_mca_plm_ssh_component, i64 289), align 1, !tbaa !52
  %15 = tail call i32 @pmix_mca_base_component_var_register(ptr noundef nonnull @prte_mca_plm_ssh_component, ptr noundef nonnull @.str.27, ptr noundef nonnull @.str.28, i32 noundef 7, ptr noundef nonnull getelementptr inbounds nuw (i8, ptr @prte_mca_plm_ssh_component, i64 289)) #13
  store ptr null, ptr getelementptr inbounds nuw (i8, ptr @prte_mca_plm_ssh_component, i64 296), align 8, !tbaa !53
  %16 = tail call i32 @pmix_mca_base_component_var_register(ptr noundef nonnull @prte_mca_plm_ssh_component, ptr noundef nonnull @.str.29, ptr noundef nonnull @.str.30, i32 noundef 5, ptr noundef nonnull getelementptr inbounds nuw (i8, ptr @prte_mca_plm_ssh_component, i64 296)) #13
  store ptr null, ptr getelementptr inbounds nuw (i8, ptr @prte_mca_plm_ssh_component, i64 304), align 8, !tbaa !54
  %17 = tail call i32 @pmix_mca_base_component_var_register(ptr noundef nonnull @prte_mca_plm_ssh_component, ptr noundef nonnull @.str.31, ptr noundef nonnull @.str.32, i32 noundef 5, ptr noundef nonnull getelementptr inbounds nuw (i8, ptr @prte_mca_plm_ssh_component, i64 304)) #13
  store ptr null, ptr getelementptr inbounds nuw (i8, ptr @prte_mca_plm_ssh_component, i64 312), align 8, !tbaa !55
  %18 = tail call i32 @pmix_mca_base_component_var_register(ptr noundef nonnull @prte_mca_plm_ssh_component, ptr noundef nonnull @.str.33, ptr noundef nonnull @.str.34, i32 noundef 5, ptr noundef nonnull getelementptr inbounds nuw (i8, ptr @prte_mca_plm_ssh_component, i64 312)) #13
  ret i32 0
}